Certificate:
    Data:
        Version: 3 (0x2)
        Serial Number: 7 (0x7)
        Signature Algorithm: sha256WithRSAEncryption
        Issuer: C=ES, ST=Islas Baleares, O=jvcertificates, OU=Seguridad, CN=projecteinfovj/emailAddress=certificadors@projecteinfovj.com
        Validity
            Not Before: Dec  5 16:52:11 2023 GMT
            Not After : Dec  4 16:52:11 2024 GMT
        Subject: C=ES, ST=Islas Baleares, O=jvcertificates, OU=Seguridad, CN=vpnclient1.projecteinfovj/emailAddress=admin@projecteinfovj.com
        Subject Public Key Info:
            Public Key Algorithm: rsaEncryption
                RSA Public-Key: (2048 bit)
                Modulus:
                    00:b8:34:16:33:05:b1:0c:cb:2f:55:20:3f:b1:51:
                    4f:71:78:b4:fe:ea:8b:a0:eb:43:e2:de:b7:bf:ed:
                    b2:48:01:10:58:3d:63:2f:8b:7a:61:8f:e8:b5:0b:
                    71:d0:35:51:f4:96:96:6a:90:97:73:84:20:d5:f3:
                    83:e7:61:ba:95:cb:a6:12:3c:6a:c1:9e:7e:72:03:
                    8d:80:0f:60:ac:bf:1d:db:8e:0a:fd:33:56:1d:47:
                    e8:07:aa:26:e1:fd:11:b5:b0:e6:ed:cd:52:24:01:
                    30:18:ea:09:58:35:8d:14:a8:27:09:b5:b3:8c:41:
                    30:e5:2f:58:64:52:09:74:eb:27:e1:c5:31:98:d0:
                    2e:ab:f5:76:21:da:72:60:b9:dd:58:18:97:bc:d4:
                    20:0d:34:dd:9c:48:9d:5e:a4:c6:8c:c0:3a:86:5f:
                    35:11:2d:03:6a:61:08:71:98:3b:92:8b:20:35:7a:
                    ea:cc:ca:04:ee:f0:a4:e5:a7:92:8b:5d:a2:62:59:
                    d0:57:d4:8d:29:56:56:f6:af:de:32:ce:69:1f:66:
                    90:54:a5:80:f5:d2:57:18:5e:b8:25:75:bb:22:3f:
                    34:78:4d:db:12:a0:37:14:88:2a:a8:92:5d:a9:e6:
                    0f:7d:f1:a4:82:d6:6f:2d:57:c3:cc:51:e8:db:34:
                    22:65
                Exponent: 65537 (0x10001)
        X509v3 extensions:
            X509v3 Basic Constraints: 
                CA:FALSE
            Netscape Comment: 
                OpenSSL Generated Certificate
            X509v3 Subject Key Identifier: 
                1C:46:D8:3A:06:E8:0B:E3:05:EB:EF:04:46:8C:5D:47:A6:DB:EE:56
            X509v3 Authority Key Identifier: 
                keyid:65:D0:0D:B6:D4:69:DA:9A:95:66:B6:24:E1:C7:D4:FA:44:DB:0B:D4

    Signature Algorithm: sha256WithRSAEncryption
         45:c4:45:21:05:7a:ff:0a:b4:7a:01:b5:e7:b4:a5:16:3c:44:
         4e:b0:c0:93:ef:4c:8a:bf:71:14:2f:41:20:b5:71:ee:41:9c:
         30:50:7f:7e:84:a4:ff:25:56:52:6f:39:8b:65:70:6c:dd:77:
         e0:42:f3:22:d3:0e:d6:9b:9a:87:5d:81:72:1d:24:09:de:c6:
         02:fb:60:89:20:9a:7d:d0:b5:8a:87:e7:a5:47:71:53:ff:b1:
         e2:56:65:aa:e3:da:82:dc:f0:70:51:17:62:cf:6d:33:b9:20:
         35:a3:ca:5b:cf:ed:81:ee:72:a0:86:30:6b:97:32:b6:7c:f4:
         5b:45:be:bc:99:ec:53:48:4d:e9:63:56:c9:b1:e3:56:a4:6f:
         80:38:67:4c:bd:ab:14:63:23:9a:87:2b:62:13:e4:89:d4:a4:
         64:9a:05:33:ba:93:5f:ab:4f:5b:d9:c3:3d:89:88:44:9f:9e:
         ea:32:e3:b3:88:16:35:1a:fa:a1:ca:40:a9:e1:11:18:6a:85:
         99:de:5e:04:6b:f2:74:23:42:38:e6:ff:1c:2d:10:6d:9d:3b:
         e0:e5:57:bb:d5:84:5b:56:b1:ec:98:c1:62:02:cb:41:be:21:
         52:e3:7b:1e:1c:f5:44:c2:a3:8c:69:34:42:9c:28:23:c3:05:
         67:5e:ea:46
-----BEGIN CERTIFICATE-----
MIIENTCCAx2gAwIBAgIBBzANBgkqhkiG9w0BAQsFADCBnTELMAkGA1UEBhMCRVMx
FzAVBgNVBAgMDklzbGFzIEJhbGVhcmVzMRcwFQYDVQQKDA5qdmNlcnRpZmljYXRl
czESMBAGA1UECwwJU2VndXJpZGFkMRcwFQYDVQQDDA5wcm9qZWN0ZWluZm92ajEv
MC0GCSqGSIb3DQEJARYgY2VydGlmaWNhZG9yc0Bwcm9qZWN0ZWluZm92ai5jb20w
HhcNMjMxMjA1MTY1MjExWhcNMjQxMjA0MTY1MjExWjCBoDELMAkGA1UEBhMCRVMx
FzAVBgNVBAgMDklzbGFzIEJhbGVhcmVzMRcwFQYDVQQKDA5qdmNlcnRpZmljYXRl
czESMBAGA1UECwwJU2VndXJpZGFkMSIwIAYDVQQDDBl2cG5jbGllbnQxLnByb2pl
Y3RlaW5mb3ZqMScwJQYJKoZIhvcNAQkBFhhhZG1pbkBwcm9qZWN0ZWluZm92ai5j
b20wggEiMA0GCSqGSIb3DQEBAQUAA4IBDwAwggEKAoIBAQC4NBYzBbEMyy9VID+x
UU9xeLT+6oug60Pi3re/7bJIARBYPWMvi3phj+i1C3HQNVH0lpZqkJdzhCDV84Pn
YbqVy6YSPGrBnn5yA42AD2Csvx3bjgr9M1YdR+gHqibh/RG1sObtzVIkATAY6glY
NY0UqCcJtbOMQTDlL1hkUgl06yfhxTGY0C6r9XYh2nJgud1YGJe81CANNN2cSJ1e
pMaMwDqGXzURLQNqYQhxmDuSiyA1eurMygTu8KTlp5KLXaJiWdBX1I0pVlb2r94y
zmkfZpBUpYD10lcYXrgldbsiPzR4TdsSoDcUiCqokl2p5g998aSC1m8tV8PMUejb
NCJlAgMBAAGjezB5MAkGA1UdEwQCMAAwLAYJYIZIAYb4QgENBB8WHU9wZW5TU0wg
R2VuZXJhdGVkIENlcnRpZmljYXRlMB0GA1UdDgQWBBQcRtg6BugL4wXr7wRGjF1H
ptvuVjAfBgNVHSMEGDAWgBRl0A221GnampVmtiThx9T6RNsL1DANBgkqhkiG9w0B
AQsFAAOCAQEARcRFIQV6/wq0egG157SlFjxETrDAk+9Mir9xFC9BILVx7kGcMFB/
foSk/yVWUm85i2VwbN134ELzItMO1puah12Bch0kCd7GAvtgiSCafdC1iofnpUdx
U/+x4lZlquPagtzwcFEXYs9tM7kgNaPKW8/tge5yoIYwa5cytnz0W0W+vJnsU0hN
6WNWybHjVqRvgDhnTL2rFGMjmocrYhPkidSkZJoFM7qTX6tPW9nDPYmIRJ+e6jLj
s4gWNRr6ocpAqeERGGqFmd5eBGvydCNCOOb/HC0QbZ074OVXu9WEW1ax7JjBYgLL
Qb4hUuN7Hhz1RMKjjGk0QpwoI8MFZ17qRg==
-----END CERTIFICATE-----
